; Function Attrs: mustprogress nofree norecurse nounwind willreturn memory(readwrite, inaccessiblemem: none) uwtable
define internal range(i32 0, 23) i32 @arena_i_oversize_threshold_ctl(ptr readnone captures(none) %0, ptr noundef readonly captures(none) %1, i64 %2, ptr noundef writeonly captures(address_is_null) %3, ptr noundef captures(address_is_null) %4, ptr noundef readonly captures(address_is_null) %5, i64 noundef %6) #12 {
  %8 = alloca i64, align 8
  %9 = getelementptr inbounds nuw i8, ptr %1, i64 8
  %10 = load i64, ptr %9, align 8, !tbaa !3
  %11 = icmp ugt i64 %10, 4294967295
  br i1 %11, label %arena_get.exit.thread, label %12

12:                                               ; preds = %7
  %13 = getelementptr inbounds nuw [0 x %struct.atomic_p_t], ptr @duckdb_je_arenas, i64 0, i64 %10
  %14 = load atomic i64, ptr %13 acquire, align 8
  %.0.i.i = inttoptr i64 %14 to ptr
  %15 = icmp eq i64 %14, 0
  br i1 %15, label %arena_get.exit.thread, label %16, !prof !207

16:                                               ; preds = %12
  %17 = icmp ne ptr %3, null
  %18 = icmp ne ptr %4, null
  %or.cond = and i1 %17, %18
  br i1 %or.cond, label %19, label %24

19:                                               ; preds = %16
  call void @llvm.lifetime.start.p0(i64 8, ptr nonnull %8)
  %20 = getelementptr inbounds nuw i8, ptr %.0.i.i, i64 69328
  %21 = load atomic i64, ptr %20 monotonic, align 8
  store i64 %21, ptr %8, align 8, !tbaa !3
  %22 = load i64, ptr %4, align 8, !tbaa !3
  %.not = icmp eq i64 %22, 8
  br i1 %.not, label %.thread, label %23

.thread:                                          ; preds = %19
  store i64 %21, ptr %3, align 8, !tbaa !3
  call void @llvm.lifetime.end.p0(i64 8, ptr nonnull %8)
  br label %24

23:                                               ; preds = %19
  %spec.select = tail call i64 @llvm.umin.i64(i64 %22, i64 8)
  call void @llvm.memcpy.p0.p0.i64(ptr nonnull align 1 %3, ptr nonnull align 8 %8, i64 %spec.select, i1 false)
  store i64 %spec.select, ptr %4, align 8, !tbaa !3
  call void @llvm.lifetime.end.p0(i64 8, ptr nonnull %8)
  br label %arena_get.exit.thread

24:                                               ; preds = %.thread, %16
  %.not36 = icmp eq ptr %5, null
  br i1 %.not36, label %arena_get.exit.thread, label %25

25:                                               ; preds = %24
  %.not37 = icmp eq i64 %6, 8
  br i1 %.not37, label %26, label %arena_get.exit.thread

26:                                               ; preds = %25
  %27 = getelementptr inbounds nuw i8, ptr %.0.i.i, i64 69328
  %28 = load i64, ptr %5, align 8, !tbaa !3
  store atomic i64 %28, ptr %27 monotonic, align 8
  br label %arena_get.exit.thread

arena_get.exit.thread:                            ; preds = %12, %23, %7, %25, %26, %24
  %.029 = phi i32 [ 22, %23 ], [ 14, %7 ], [ 22, %25 ], [ 0, %26 ], [ 0, %24 ], [ 14, %12 ]
  ret i32 %.029
}